target datalayout = "e-m:e-p270:32:32-p271:32:32-p272:64:64-i64:64-i128:128-f80:128-n8:16:32:64-S128"
target triple = "x86_64-unknown-linux-gnu"

%struct.ecc_key = type { i32, i32, i32, i32, ptr, ptr, %struct.ecc_point, [1 x %struct.sp_int], ptr }
%struct.ecc_point = type { [1 x %struct.sp_int], [1 x %struct.sp_int], [1 x %struct.sp_int] }
%struct.sp_int = type { i32, i32, [129 x i64] }

; Function Attrs: nounwind uwtable
define i32 @wc_ecc_init_ex(ptr noundef %key, ptr noundef %heap, i32 noundef %devId) #0 {
entry:
  %retval = alloca i32, align 4
  %key.addr = alloca ptr, align 8
  %heap.addr = alloca ptr, align 8
  %devId.addr = alloca i32, align 4
  %ret = alloca i32, align 4
  store ptr %key, ptr %key.addr, align 8
  store ptr %heap, ptr %heap.addr, align 8
  store i32 %devId, ptr %devId.addr, align 4
  store i32 0, ptr %ret, align 4
  %0 = load ptr, ptr %key.addr, align 8
  %cmp = icmp eq ptr %0, null
  br i1 %cmp, label %if.then, label %if.end

if.then:                                          ; preds = %entry
  store i32 -173, ptr %retval, align 4
  br label %return

if.end:                                           ; preds = %entry
  %1 = load ptr, ptr %key.addr, align 8
  call void @llvm.memset.p0.i64(ptr align 8 %1, i8 0, i64 4200, i1 false)
  %2 = load ptr, ptr %key.addr, align 8
  %state = getelementptr inbounds %struct.ecc_key, ptr %2, i32 0, i32 2
  store i32 0, ptr %state, align 8
  %3 = load ptr, ptr %key.addr, align 8
  %k = getelementptr inbounds %struct.ecc_key, ptr %3, i32 0, i32 7
  %arraydecay = getelementptr inbounds [1 x %struct.sp_int], ptr %k, i64 0, i64 0
  %4 = load ptr, ptr %key.addr, align 8
  %pubkey = getelementptr inbounds %struct.ecc_key, ptr %4, i32 0, i32 6
  %x = getelementptr inbounds %struct.ecc_point, ptr %pubkey, i32 0, i32 0
  %arraydecay1 = getelementptr inbounds [1 x %struct.sp_int], ptr %x, i64 0, i64 0
  %5 = load ptr, ptr %key.addr, align 8
  %pubkey2 = getelementptr inbounds %struct.ecc_key, ptr %5, i32 0, i32 6
  %y = getelementptr inbounds %struct.ecc_point, ptr %pubkey2, i32 0, i32 1
  %arraydecay3 = getelementptr inbounds [1 x %struct.sp_int], ptr %y, i64 0, i64 0
  %6 = load ptr, ptr %key.addr, align 8
  %pubkey4 = getelementptr inbounds %struct.ecc_key, ptr %6, i32 0, i32 6
  %z = getelementptr inbounds %struct.ecc_point, ptr %pubkey4, i32 0, i32 2
  %arraydecay5 = getelementptr inbounds [1 x %struct.sp_int], ptr %z, i64 0, i64 0
  %call = call i32 @sp_init_multi(ptr noundef %arraydecay, ptr noundef %arraydecay1, ptr noundef %arraydecay3, ptr noundef %arraydecay5, ptr noundef null, ptr noundef null)
  store i32 %call, ptr %ret, align 4
  %7 = load i32, ptr %ret, align 4
  %cmp6 = icmp ne i32 %7, 0
  br i1 %cmp6, label %if.then7, label %if.end8

if.then7:                                         ; preds = %if.end
  store i32 -125, ptr %retval, align 4
  br label %return

if.end8:                                          ; preds = %if.end
  %8 = load ptr, ptr %heap.addr, align 8
  %9 = load ptr, ptr %key.addr, align 8
  %heap9 = getelementptr inbounds %struct.ecc_key, ptr %9, i32 0, i32 5
  store ptr %8, ptr %heap9, align 8
  %10 = load i32, ptr %ret, align 4
  store i32 %10, ptr %retval, align 4
  br label %return

return:                                           ; preds = %if.end8, %if.then7, %if.then
  %11 = load i32, ptr %retval, align 4
  ret i32 %11
}

; Function Attrs: nounwind uwtable
define i32 @wc_ecc_init(ptr noundef %key) #0 {
entry:
  %key.addr = alloca ptr, align 8
  store ptr %key, ptr %key.addr, align 8
  %0 = load ptr, ptr %key.addr, align 8
  %call = call i32 @wc_ecc_init_ex(ptr noundef %0, ptr noundef null, i32 noundef -2)
  ret i32 %call
}