; Function Attrs: nounwind uwtable
define range(i32 -173, 1) i32 @wc_ecc_init(ptr noundef %key) local_unnamed_addr #2 {
entry:
  %cmp.i = icmp eq ptr %key, null
  br i1 %cmp.i, label %wc_ecc_init_ex.exit, label %if.end.i

if.end.i:                                         ; preds = %entry
  %k.i = getelementptr inbounds nuw i8, ptr %key, i64 3152
  %pubkey.i = getelementptr inbounds nuw i8, ptr %key, i64 32
  %y.i = getelementptr inbounds nuw i8, ptr %key, i64 1072
  %z.i = getelementptr inbounds nuw i8, ptr %key, i64 2112
  tail call void @llvm.memset.p0.i64(ptr noundef nonnull align 8 dereferenceable(4200) %key, i8 0, i64 4200, i1 false)
  %call.i = tail call i32 @sp_init_multi(ptr noundef nonnull %k.i, ptr noundef nonnull %pubkey.i, ptr noundef nonnull %y.i, ptr noundef nonnull %z.i, ptr noundef null, ptr noundef null) #19
  %cmp6.not.i = icmp eq i32 %call.i, 0
  br i1 %cmp6.not.i, label %if.end8.i, label %wc_ecc_init_ex.exit

if.end8.i:                                        ; preds = %if.end.i
  %heap9.i = getelementptr inbounds nuw i8, ptr %key, i64 24
  store ptr null, ptr %heap9.i, align 8
  br label %wc_ecc_init_ex.exit

wc_ecc_init_ex.exit:                              ; preds = %entry, %if.end.i, %if.end8.i
  %retval.0.i = phi i32 [ 0, %if.end8.i ], [ -173, %entry ], [ -125, %if.end.i ]
  ret i32 %retval.0.i
}